; Function Attrs: nounwind uwtable
define void @Cec3_ManSimulateCis(ptr noundef captures(none) %0) local_unnamed_addr #2 {
  %2 = getelementptr inbounds nuw i8, ptr %0, i64 64
  %3 = load ptr, ptr %2, align 8, !tbaa !56
  %4 = getelementptr i8, ptr %3, i64 4
  %.val912 = load i32, ptr %4, align 4, !tbaa !57
  %5 = icmp sgt i32 %.val912, 0
  br i1 %5, label %.lr.ph, label %.critedge

.lr.ph:                                           ; preds = %1
  %6 = getelementptr i8, ptr %0, i64 816
  %7 = getelementptr i8, ptr %0, i64 832
  br label %8

8:                                                ; preds = %.lr.ph, %Cec3_ObjSimCi.exit
  %9 = phi ptr [ %3, %.lr.ph ], [ %24, %Cec3_ObjSimCi.exit ]
  %indvars.iv = phi i64 [ 0, %.lr.ph ], [ %indvars.iv.next, %Cec3_ObjSimCi.exit ]
  %10 = getelementptr i8, ptr %9, i64 8
  %.val11.val = load ptr, ptr %10, align 8, !tbaa !33
  %11 = getelementptr inbounds nuw i32, ptr %.val11.val, i64 %indvars.iv
  %12 = load i32, ptr %11, align 4, !tbaa !34
  %.not = icmp eq i32 %12, 0
  br i1 %.not, label %.critedge, label %13

13:                                               ; preds = %8
  %.val.i = load i32, ptr %6, align 8, !tbaa !58
  %.val7.i = load ptr, ptr %7, align 8, !tbaa !59
  %14 = getelementptr i8, ptr %.val7.i, i64 8
  %.val7.val.i = load ptr, ptr %14, align 8, !tbaa !60
  %15 = mul nsw i32 %.val.i, %12
  %16 = sext i32 %15 to i64
  %17 = getelementptr inbounds i64, ptr %.val7.val.i, i64 %16
  %18 = icmp sgt i32 %.val.i, 0
  br i1 %18, label %.lr.ph.i, label %Cec3_ObjSimCi.exit

.lr.ph.i:                                         ; preds = %13, %.lr.ph.i
  %indvars.iv.i = phi i64 [ %indvars.iv.next.i, %.lr.ph.i ], [ 0, %13 ]
  %19 = tail call i64 @Gia_ManRandomW(i32 noundef 0) #22
  %20 = getelementptr inbounds nuw i64, ptr %17, i64 %indvars.iv.i
  store i64 %19, ptr %20, align 8, !tbaa !63
  %indvars.iv.next.i = add nuw nsw i64 %indvars.iv.i, 1
  %21 = load i32, ptr %6, align 8, !tbaa !58
  %22 = sext i32 %21 to i64
  %23 = icmp slt i64 %indvars.iv.next.i, %22
  br i1 %23, label %.lr.ph.i, label %Cec3_ObjSimCi.exit.loopexit, !llvm.loop !64

Cec3_ObjSimCi.exit.loopexit:                      ; preds = %.lr.ph.i
  %.pre = load ptr, ptr %2, align 8, !tbaa !56
  br label %Cec3_ObjSimCi.exit

Cec3_ObjSimCi.exit:                               ; preds = %Cec3_ObjSimCi.exit.loopexit, %13
  %24 = phi ptr [ %.pre, %Cec3_ObjSimCi.exit.loopexit ], [ %9, %13 ]
  %25 = load i64, ptr %17, align 8, !tbaa !63
  %26 = shl i64 %25, 1
  store i64 %26, ptr %17, align 8, !tbaa !63
  %indvars.iv.next = add nuw nsw i64 %indvars.iv, 1
  %27 = getelementptr i8, ptr %24, i64 4
  %.val9 = load i32, ptr %27, align 4, !tbaa !57
  %28 = sext i32 %.val9 to i64
  %29 = icmp slt i64 %indvars.iv.next, %28
  br i1 %29, label %8, label %.critedge, !llvm.loop !65

.critedge:                                        ; preds = %8, %Cec3_ObjSimCi.exit, %1
  %30 = getelementptr inbounds nuw i8, ptr %0, i64 812
  store i32 0, ptr %30, align 4, !tbaa !66
  ret void
}